Certificate:
    Data:
        Version: 1 (0x0)
        Serial Number: 2 (0x2)
        Signature Algorithm: ED25519
        Issuer: C=AU, ST=s1, L=c1, O=o1, CN=server1
        Validity
            Not Before: Nov 11 04:22:22 2023 GMT
            Not After : Nov 10 04:22:22 2024 GMT
        Subject: C=AU, ST=s3, O=o3, CN=server3
        Subject Public Key Info:
            Public Key Algorithm: id-ecPublicKey
                Public-Key: (256 bit)
                pub:
                    04:74:92:f0:c7:67:0e:6f:5a:4d:4f:08:24:36:9c:
                    f9:08:7b:ce:de:91:0a:cb:d8:65:7c:45:70:6a:93:
                    1e:24:03:44:6a:56:b4:e4:97:c9:c7:b7:7c:80:eb:
                    ad:3a:27:62:da:b7:c2:47:d9:5a:66:0e:8e:b2:68:
                    20:6d:c7:58:d4
                ASN1 OID: secp256k1
    Signature Algorithm: ED25519
    Signature Value:
        70:b1:0d:2a:fc:f2:5a:a9:74:94:33:c9:6b:ac:7d:fe:ba:66:
        64:44:68:64:6c:d2:b8:70:09:60:d0:ac:99:d0:38:a6:93:17:
        f2:f5:69:61:b2:84:d1:be:b6:8e:54:b1:eb:d7:91:05:73:d6:
        e1:95:3b:61:8f:03:aa:a0:a8:01
-----BEGIN CERTIFICATE-----
MIIBUzCCAQUCAQIwBQYDK2VwMEYxCzAJBgNVBAYTAkFVMQswCQYDVQQIDAJzMTEL
MAkGA1UEBwwCYzExCzAJBgNVBAoMAm8xMRAwDgYDVQQDDAdzZXJ2ZXIxMB4XDTIz
MTExMTA0MjIyMloXDTI0MTExMDA0MjIyMlowOTELMAkGA1UEBhMCQVUxCzAJBgNV
BAgMAnMzMQswCQYDVQQKDAJvMzEQMA4GA1UEAwwHc2VydmVyMzBWMBAGByqGSM49
AgEGBSuBBAAKA0IABHSS8MdnDm9aTU8IJDac+Qh7zt6RCsvYZXxFcGqTHiQDRGpW
tOSXyce3fIDrrTonYtq3wkfZWmYOjrJoIG3HWNQwBQYDK2VwA0EAcLENKvzyWql0
lDPJa6x9/rpmZERoZGzSuHAJYNCsmdA4ppMX8vVpYbKE0b62jlSx69eRBXPW4ZU7
YY8DqqCoAQ==
-----END CERTIFICATE-----
